target datalayout = "e-m:e-p270:32:32-p271:32:32-p272:64:64-i64:64-i128:128-f80:128-n8:16:32:64-S128"
target triple = "x86_64-pc-linux-gnu"

%struct._packet_info = type { ptr, ptr, i32, i32, %struct.nstime_t, %struct.nstime_t, %struct.nstime_t, i8, ptr, ptr, ptr, ptr, %struct._address, %struct._address, %struct._address, %struct._address, %struct._address, %struct._address, i32, ptr, i8, [3 x i8], %struct.anon, i32, i32, i32, i32, ptr, i8, ptr, ptr, i16, i16, i32, i32, i16, i32, i32, ptr, ptr, ptr, i8, i8, i16, i16, i16, i32, i16, i16, ptr, ptr, ptr, ptr, ptr, i32, i32 }
%struct.nstime_t = type { i64, i32 }
%struct._address = type { i32, i32, ptr, ptr }
%struct.anon = type { i8, [3 x i8] }

@hf_zrtp_msg_hmac = internal global i32 0, align 4
@hf_zrtp_msg_cfb = internal global i32 0, align 4
@proto_zrtp = internal global i32 0, align 4
@.str.217 = private unnamed_addr constant [15 x i8] c"Encrypted Data\00", align 1
@.str.223 = private unnamed_addr constant [16 x i8] c"SASrelay Packet\00", align 1

; Function Attrs: null_pointer_is_valid sspstrong uwtable
define internal void @dissect_SASrelay(ptr noundef %0, ptr noundef %1, ptr noundef %2) #0 {
  %4 = alloca ptr, align 8
  %5 = alloca ptr, align 8
  %6 = alloca ptr, align 8
  %7 = alloca i32, align 4
  %8 = alloca i32, align 4
  store ptr %0, ptr %4, align 8
  store ptr %1, ptr %5, align 8
  store ptr %2, ptr %6, align 8
  call void @llvm.lifetime.start.p0(i64 4, ptr %7) #6
  store i32 24, ptr %7, align 4
  call void @llvm.lifetime.start.p0(i64 4, ptr %8) #6
  %9 = load ptr, ptr %5, align 8
  %10 = getelementptr inbounds nuw %struct._packet_info, ptr %9, i32 0, i32 1
  %11 = load ptr, ptr %10, align 8
  call void @col_set_str(ptr noundef %11, i32 noundef 25, ptr noundef @.str.223)
  %12 = load ptr, ptr %6, align 8
  %13 = load i32, ptr @hf_zrtp_msg_hmac, align 4
  %14 = load ptr, ptr %4, align 8
  %15 = load i32, ptr %7, align 4
  %16 = add i32 %15, 0
  %17 = call ptr @proto_tree_add_item(ptr noundef %12, i32 noundef %13, ptr noundef %14, i32 noundef %16, i32 noundef 8, i32 noundef 0)
  %18 = load ptr, ptr %6, align 8
  %19 = load i32, ptr @hf_zrtp_msg_cfb, align 4
  %20 = load ptr, ptr %4, align 8
  %21 = load i32, ptr %7, align 4
  %22 = add i32 %21, 8
  %23 = call ptr @proto_tree_add_item(ptr noundef %18, i32 noundef %19, ptr noundef %20, i32 noundef %22, i32 noundef 16, i32 noundef 0)
  %24 = load ptr, ptr %4, align 8
  %25 = load i32, ptr %7, align 4
  %26 = add i32 %25, 24
  %27 = call i32 @tvb_reported_length_remaining(ptr noundef %24, i32 noundef %26)
  store i32 %27, ptr %8, align 4
  %28 = load ptr, ptr %6, align 8
  %29 = load i32, ptr @proto_zrtp, align 4
  %30 = load ptr, ptr %4, align 8
  %31 = load i32, ptr %7, align 4
  %32 = add i32 %31, 24
  %33 = load i32, ptr %8, align 4
  %34 = sub i32 %33, 4
  %35 = call ptr (ptr, i32, ptr, i32, i32, ptr, ...) @proto_tree_add_protocol_format(ptr noundef %28, i32 noundef %29, ptr noundef %30, i32 noundef %32, i32 noundef %34, ptr noundef @.str.217)
  call void @llvm.lifetime.end.p0(i64 4, ptr %8) #6
  call void @llvm.lifetime.end.p0(i64 4, ptr %7) #6
  ret void
}