; Function Attrs: null_pointer_is_valid sspstrong uwtable
define internal fastcc void @dissect_SASrelay(ptr noundef %0, ptr %.8.val, ptr noundef %1) unnamed_addr #0 {
  tail call void @col_set_str(ptr noundef %.8.val, i32 noundef 25, ptr noundef nonnull @.str.223)
  %3 = load i32, ptr @hf_zrtp_msg_hmac, align 4
  %4 = tail call ptr @proto_tree_add_item(ptr noundef %1, i32 noundef %3, ptr noundef %0, i32 noundef 24, i32 noundef 8, i32 noundef 0)
  %5 = load i32, ptr @hf_zrtp_msg_cfb, align 4
  %6 = tail call ptr @proto_tree_add_item(ptr noundef %1, i32 noundef %5, ptr noundef %0, i32 noundef 32, i32 noundef 16, i32 noundef 0)
  %7 = tail call i32 @tvb_reported_length_remaining(ptr noundef %0, i32 noundef 48)
  %8 = load i32, ptr @proto_zrtp, align 4
  %9 = add i32 %7, -4
  %10 = tail call ptr (ptr, i32, ptr, i32, i32, ptr, ...) @proto_tree_add_protocol_format(ptr noundef %1, i32 noundef %8, ptr noundef %0, i32 noundef 48, i32 noundef %9, ptr noundef nonnull @.str.217)
  ret void
}